target datalayout = "e-m:e-p270:32:32-p271:32:32-p272:64:64-i64:64-i128:128-f80:128-n8:16:32:64-S128"
target triple = "x86_64-pc-linux-gnu"

%struct.ctlog_st = type { ptr, ptr, ptr, [32 x i8], ptr }

@.str = private unnamed_addr constant [30 x i8] c"../openssl/crypto/ct/ct_log.c\00", align 1
@__func__.ct_v1_log_id_from_pkey = private unnamed_addr constant [23 x i8] c"ct_v1_log_id_from_pkey\00", align 1
@.str.6 = private unnamed_addr constant [9 x i8] c"SHA2-256\00", align 1

; Function Attrs: nounwind uwtable
define void @CTLOG_free(ptr noundef %0) #0 {
  %2 = alloca ptr, align 8
  store ptr %0, ptr %2, align 8, !tbaa !19
  %3 = load ptr, ptr %2, align 8, !tbaa !19
  %4 = icmp ne ptr %3, null
  br i1 %4, label %5, label %16

5:                                                ; preds = %1
  %6 = load ptr, ptr %2, align 8, !tbaa !19
  %7 = getelementptr inbounds nuw %struct.ctlog_st, ptr %6, i32 0, i32 2
  %8 = load ptr, ptr %7, align 8, !tbaa !21
  call void @CRYPTO_free(ptr noundef %8, ptr noundef @.str, i32 noundef 295)
  %9 = load ptr, ptr %2, align 8, !tbaa !19
  %10 = getelementptr inbounds nuw %struct.ctlog_st, ptr %9, i32 0, i32 4
  %11 = load ptr, ptr %10, align 8, !tbaa !24
  call void @EVP_PKEY_free(ptr noundef %11)
  %12 = load ptr, ptr %2, align 8, !tbaa !19
  %13 = getelementptr inbounds nuw %struct.ctlog_st, ptr %12, i32 0, i32 1
  %14 = load ptr, ptr %13, align 8, !tbaa !25
  call void @CRYPTO_free(ptr noundef %14, ptr noundef @.str, i32 noundef 297)
  %15 = load ptr, ptr %2, align 8, !tbaa !19
  call void @CRYPTO_free(ptr noundef %15, ptr noundef @.str, i32 noundef 298)
  br label %16

16:                                               ; preds = %5, %1
  ret void
}

; Function Attrs: nounwind uwtable
define internal i32 @ct_v1_log_id_from_pkey(ptr noundef %0, ptr noundef %1) #0 {
  %3 = alloca ptr, align 8
  %4 = alloca ptr, align 8
  %5 = alloca i32, align 4
  %6 = alloca ptr, align 8
  %7 = alloca i32, align 4
  %8 = alloca i32, align 4
  %9 = alloca ptr, align 8
  store ptr %0, ptr %3, align 8, !tbaa !19
  store ptr %1, ptr %4, align 8, !tbaa !36
  call void @llvm.lifetime.start.p0(i64 4, ptr %5) #5
  store i32 0, ptr %5, align 4, !tbaa !26
  call void @llvm.lifetime.start.p0(i64 8, ptr %6) #5
  store ptr null, ptr %6, align 8, !tbaa !8
  call void @llvm.lifetime.start.p0(i64 4, ptr %7) #5
  %10 = load ptr, ptr %4, align 8, !tbaa !36
  %11 = call i32 @i2d_PUBKEY(ptr noundef %10, ptr noundef %6)
  store i32 %11, ptr %7, align 4, !tbaa !26
  call void @llvm.lifetime.start.p0(i64 4, ptr %8) #5
  call void @llvm.lifetime.start.p0(i64 8, ptr %9) #5
  store ptr null, ptr %9, align 8, !tbaa !38
  %12 = load i32, ptr %7, align 4, !tbaa !26
  %13 = icmp sle i32 %12, 0
  br i1 %13, label %14, label %15

14:                                               ; preds = %2
  call void @ERR_new()
  call void @ERR_set_debug(ptr noundef @.str, i32 noundef 83, ptr noundef @__func__.ct_v1_log_id_from_pkey)
  call void (i32, i32, ptr, ...) @ERR_set_error(i32 noundef 50, i32 noundef 113, ptr noundef null)
  br label %35

15:                                               ; preds = %2
  %16 = load ptr, ptr %3, align 8, !tbaa !19
  %17 = getelementptr inbounds nuw %struct.ctlog_st, ptr %16, i32 0, i32 0
  %18 = load ptr, ptr %17, align 8, !tbaa !37
  %19 = load ptr, ptr %3, align 8, !tbaa !19
  %20 = getelementptr inbounds nuw %struct.ctlog_st, ptr %19, i32 0, i32 1
  %21 = load ptr, ptr %20, align 8, !tbaa !25
  %22 = call ptr @EVP_MD_fetch(ptr noundef %18, ptr noundef @.str.6, ptr noundef %21)
  store ptr %22, ptr %9, align 8, !tbaa !38
  %23 = load ptr, ptr %9, align 8, !tbaa !38
  %24 = icmp eq ptr %23, null
  br i1 %24, label %25, label %26

25:                                               ; preds = %15
  call void @ERR_new()
  call void @ERR_set_debug(ptr noundef @.str, i32 noundef 88, ptr noundef @__func__.ct_v1_log_id_from_pkey)
  call void (i32, i32, ptr, ...) @ERR_set_error(i32 noundef 50, i32 noundef 524294, ptr noundef null)
  br label %35

26:                                               ; preds = %15
  %27 = load ptr, ptr %6, align 8, !tbaa !8
  %28 = load i32, ptr %7, align 4, !tbaa !26
  %29 = sext i32 %28 to i64
  %30 = load ptr, ptr %3, align 8, !tbaa !19
  %31 = getelementptr inbounds nuw %struct.ctlog_st, ptr %30, i32 0, i32 3
  %32 = getelementptr inbounds [32 x i8], ptr %31, i64 0, i64 0
  %33 = load ptr, ptr %9, align 8, !tbaa !38
  %34 = call i32 @EVP_Digest(ptr noundef %27, i64 noundef %29, ptr noundef %32, ptr noundef %8, ptr noundef %33, ptr noundef null)
  store i32 %34, ptr %5, align 4, !tbaa !26
  br label %35

35:                                               ; preds = %26, %25, %14
  %36 = load ptr, ptr %9, align 8, !tbaa !38
  call void @EVP_MD_free(ptr noundef %36)
  %37 = load ptr, ptr %6, align 8, !tbaa !8
  call void @CRYPTO_free(ptr noundef %37, ptr noundef @.str, i32 noundef 96)
  %38 = load i32, ptr %5, align 4, !tbaa !26
  call void @llvm.lifetime.end.p0(i64 8, ptr %9) #5
  call void @llvm.lifetime.end.p0(i64 4, ptr %8) #5
  call void @llvm.lifetime.end.p0(i64 4, ptr %7) #5
  call void @llvm.lifetime.end.p0(i64 8, ptr %6) #5
  call void @llvm.lifetime.end.p0(i64 4, ptr %5) #5
  ret i32 %38
}

; Function Attrs: nounwind uwtable
define ptr @CTLOG_new_ex(ptr noundef %0, ptr noundef %1, ptr noundef %2, ptr noundef %3) #0 {
  %5 = alloca ptr, align 8
  %6 = alloca ptr, align 8
  %7 = alloca ptr, align 8
  %8 = alloca ptr, align 8
  %9 = alloca ptr, align 8
  %10 = alloca ptr, align 8
  %11 = alloca i32, align 4
  store ptr %0, ptr %6, align 8, !tbaa !36
  store ptr %1, ptr %7, align 8, !tbaa !8
  store ptr %2, ptr %8, align 8, !tbaa !3
  store ptr %3, ptr %9, align 8, !tbaa !8
  call void @llvm.lifetime.start.p0(i64 8, ptr %10) #5
  %12 = call noalias ptr @CRYPTO_zalloc(i64 noundef 64, ptr noundef @.str, i32 noundef 260)
  store ptr %12, ptr %10, align 8, !tbaa !19
  %13 = load ptr, ptr %10, align 8, !tbaa !19
  %14 = icmp eq ptr %13, null
  br i1 %14, label %15, label %16

15:                                               ; preds = %4
  store ptr null, ptr %5, align 8
  store i32 1, ptr %11, align 4
  br label %56

16:                                               ; preds = %4
  %17 = load ptr, ptr %8, align 8, !tbaa !3
  %18 = load ptr, ptr %10, align 8, !tbaa !19
  %19 = getelementptr inbounds nuw %struct.ctlog_st, ptr %18, i32 0, i32 0
  store ptr %17, ptr %19, align 8, !tbaa !37
  %20 = load ptr, ptr %9, align 8, !tbaa !8
  %21 = icmp ne ptr %20, null
  br i1 %21, label %22, label %33

22:                                               ; preds = %16
  %23 = load ptr, ptr %9, align 8, !tbaa !8
  %24 = call noalias ptr @CRYPTO_strdup(ptr noundef %23, ptr noundef @.str, i32 noundef 267)
  %25 = load ptr, ptr %10, align 8, !tbaa !19
  %26 = getelementptr inbounds nuw %struct.ctlog_st, ptr %25, i32 0, i32 1
  store ptr %24, ptr %26, align 8, !tbaa !25
  %27 = load ptr, ptr %10, align 8, !tbaa !19
  %28 = getelementptr inbounds nuw %struct.ctlog_st, ptr %27, i32 0, i32 1
  %29 = load ptr, ptr %28, align 8, !tbaa !25
  %30 = icmp eq ptr %29, null
  br i1 %30, label %31, label %32

31:                                               ; preds = %22
  br label %54

32:                                               ; preds = %22
  br label %33

33:                                               ; preds = %32, %16
  %34 = load ptr, ptr %7, align 8, !tbaa !8
  %35 = call noalias ptr @CRYPTO_strdup(ptr noundef %34, ptr noundef @.str, i32 noundef 272)
  %36 = load ptr, ptr %10, align 8, !tbaa !19
  %37 = getelementptr inbounds nuw %struct.ctlog_st, ptr %36, i32 0, i32 2
  store ptr %35, ptr %37, align 8, !tbaa !21
  %38 = load ptr, ptr %10, align 8, !tbaa !19
  %39 = getelementptr inbounds nuw %struct.ctlog_st, ptr %38, i32 0, i32 2
  %40 = load ptr, ptr %39, align 8, !tbaa !21
  %41 = icmp eq ptr %40, null
  br i1 %41, label %42, label %43

42:                                               ; preds = %33
  br label %54

43:                                               ; preds = %33
  %44 = load ptr, ptr %10, align 8, !tbaa !19
  %45 = load ptr, ptr %6, align 8, !tbaa !36
  %46 = call i32 @ct_v1_log_id_from_pkey(ptr noundef %44, ptr noundef %45)
  %47 = icmp ne i32 %46, 1
  br i1 %47, label %48, label %49

48:                                               ; preds = %43
  br label %54

49:                                               ; preds = %43
  %50 = load ptr, ptr %6, align 8, !tbaa !36
  %51 = load ptr, ptr %10, align 8, !tbaa !19
  %52 = getelementptr inbounds nuw %struct.ctlog_st, ptr %51, i32 0, i32 4
  store ptr %50, ptr %52, align 8, !tbaa !24
  %53 = load ptr, ptr %10, align 8, !tbaa !19
  store ptr %53, ptr %5, align 8
  store i32 1, ptr %11, align 4
  br label %56

54:                                               ; preds = %48, %42, %31
  %55 = load ptr, ptr %10, align 8, !tbaa !19
  call void @CTLOG_free(ptr noundef %55)
  store ptr null, ptr %5, align 8
  store i32 1, ptr %11, align 4
  br label %56

56:                                               ; preds = %54, %49, %15
  call void @llvm.lifetime.end.p0(i64 8, ptr %10) #5
  %57 = load ptr, ptr %5, align 8
  ret ptr %57
}