; Function Attrs: nounwind uwtable
define ptr @CTLOG_new_ex(ptr noundef %0, ptr noundef %1, ptr noundef %2, ptr noundef %3) local_unnamed_addr #0 {
  %5 = alloca ptr, align 8
  %6 = alloca i32, align 4
  %7 = tail call noalias ptr @CRYPTO_zalloc(i64 noundef 64, ptr noundef nonnull @.str, i32 noundef 260) #6
  %8 = icmp eq ptr %7, null
  br i1 %8, label %42, label %9

9:                                                ; preds = %4
  store ptr %2, ptr %7, align 8, !tbaa !27
  %.not = icmp eq ptr %3, null
  br i1 %.not, label %14, label %10

10:                                               ; preds = %9
  %11 = tail call noalias ptr @CRYPTO_strdup(ptr noundef nonnull %3, ptr noundef nonnull @.str, i32 noundef 267) #6
  %12 = getelementptr inbounds nuw i8, ptr %7, i64 8
  store ptr %11, ptr %12, align 8, !tbaa !17
  %13 = icmp eq ptr %11, null
  br i1 %13, label %CTLOG_free.exit, label %14

14:                                               ; preds = %10, %9
  %15 = tail call noalias ptr @CRYPTO_strdup(ptr noundef %1, ptr noundef nonnull @.str, i32 noundef 272) #6
  %16 = getelementptr inbounds nuw i8, ptr %7, i64 16
  store ptr %15, ptr %16, align 8, !tbaa !13
  %17 = icmp eq ptr %15, null
  br i1 %17, label %CTLOG_free.exit, label %18

18:                                               ; preds = %14
  call void @llvm.lifetime.start.p0(i64 8, ptr nonnull %5) #6
  store ptr null, ptr %5, align 8, !tbaa !28
  %19 = call i32 @i2d_PUBKEY(ptr noundef %0, ptr noundef nonnull %5) #6
  call void @llvm.lifetime.start.p0(i64 4, ptr nonnull %6) #6
  %20 = icmp slt i32 %19, 1
  br i1 %20, label %CTLOG_free.exit.critedge, label %21

21:                                               ; preds = %18
  %22 = load ptr, ptr %7, align 8, !tbaa !27
  %23 = getelementptr inbounds nuw i8, ptr %7, i64 8
  %24 = load ptr, ptr %23, align 8, !tbaa !17
  %25 = call ptr @EVP_MD_fetch(ptr noundef %22, ptr noundef nonnull @.str.6, ptr noundef %24) #6
  %26 = icmp eq ptr %25, null
  br i1 %26, label %CTLOG_free.exit.critedge, label %ct_v1_log_id_from_pkey.exit

ct_v1_log_id_from_pkey.exit:                      ; preds = %21
  %27 = load ptr, ptr %5, align 8, !tbaa !28
  %28 = zext nneg i32 %19 to i64
  %29 = getelementptr inbounds nuw i8, ptr %7, i64 24
  %30 = call i32 @EVP_Digest(ptr noundef %27, i64 noundef %28, ptr noundef nonnull %29, ptr noundef nonnull %6, ptr noundef nonnull %25, ptr noundef null) #6
  %31 = icmp eq i32 %30, 1
  call void @EVP_MD_free(ptr noundef nonnull %25) #6
  %32 = load ptr, ptr %5, align 8, !tbaa !28
  call void @CRYPTO_free(ptr noundef %32, ptr noundef nonnull @.str, i32 noundef 96) #6
  call void @llvm.lifetime.end.p0(i64 4, ptr nonnull %6) #6
  call void @llvm.lifetime.end.p0(i64 8, ptr nonnull %5) #6
  br i1 %31, label %33, label %CTLOG_free.exit

33:                                               ; preds = %ct_v1_log_id_from_pkey.exit
  %34 = getelementptr inbounds nuw i8, ptr %7, i64 56
  store ptr %0, ptr %34, align 8, !tbaa !16
  br label %42

CTLOG_free.exit.critedge:                         ; preds = %21, %18
  %.sink20 = phi i32 [ 83, %18 ], [ 88, %21 ]
  %.sink = phi i32 [ 113, %18 ], [ 524294, %21 ]
  call void @ERR_new() #6
  call void @ERR_set_debug(ptr noundef nonnull @.str, i32 noundef %.sink20, ptr noundef nonnull @__func__.ct_v1_log_id_from_pkey) #6
  call void (i32, i32, ptr, ...) @ERR_set_error(i32 noundef 50, i32 noundef %.sink, ptr noundef null) #6
  call void @EVP_MD_free(ptr noundef null) #6
  %35 = load ptr, ptr %5, align 8, !tbaa !28
  call void @CRYPTO_free(ptr noundef %35, ptr noundef nonnull @.str, i32 noundef 96) #6
  call void @llvm.lifetime.end.p0(i64 4, ptr nonnull %6) #6
  call void @llvm.lifetime.end.p0(i64 8, ptr nonnull %5) #6
  br label %CTLOG_free.exit

CTLOG_free.exit:                                  ; preds = %CTLOG_free.exit.critedge, %ct_v1_log_id_from_pkey.exit, %14, %10
  %36 = getelementptr inbounds nuw i8, ptr %7, i64 16
  %37 = load ptr, ptr %36, align 8, !tbaa !13
  call void @CRYPTO_free(ptr noundef %37, ptr noundef nonnull @.str, i32 noundef 295) #6
  %38 = getelementptr inbounds nuw i8, ptr %7, i64 56
  %39 = load ptr, ptr %38, align 8, !tbaa !16
  call void @EVP_PKEY_free(ptr noundef %39) #6
  %40 = getelementptr inbounds nuw i8, ptr %7, i64 8
  %41 = load ptr, ptr %40, align 8, !tbaa !17
  call void @CRYPTO_free(ptr noundef %41, ptr noundef nonnull @.str, i32 noundef 297) #6
  call void @CRYPTO_free(ptr noundef nonnull %7, ptr noundef nonnull @.str, i32 noundef 298) #6
  br label %42

42:                                               ; preds = %4, %CTLOG_free.exit, %33
  %.0 = phi ptr [ null, %CTLOG_free.exit ], [ %7, %33 ], [ null, %4 ]
  ret ptr %.0
}